; Function Attrs: mustprogress uwtable
define hidden void @_ZN13pdecl_manager4pushEv(ptr noundef nonnull align 8 dereferenceable(192) %this) local_unnamed_addr #3 align 2 {
entry:
  %m_notified_lim = getelementptr inbounds i8, ptr %this, i64 168
  %m_notified_trail = getelementptr inbounds i8, ptr %this, i64 160
  %0 = load ptr, ptr %m_notified_trail, align 8
  %cmp.i = icmp eq ptr %0, null
  br i1 %cmp.i, label %_ZNK6vectorIP4sortLb0EjE4sizeEv.exit, label %if.end.i

if.end.i:                                         ; preds = %entry
  %arrayidx.i = getelementptr inbounds i8, ptr %0, i64 -4
  %1 = load i32, ptr %arrayidx.i, align 4
  br label %_ZNK6vectorIP4sortLb0EjE4sizeEv.exit

_ZNK6vectorIP4sortLb0EjE4sizeEv.exit:             ; preds = %entry, %if.end.i
  %retval.0.i = phi i32 [ %1, %if.end.i ], [ 0, %entry ]
  %2 = load ptr, ptr %m_notified_lim, align 8
  %cmp.i1 = icmp eq ptr %2, null
  br i1 %cmp.i1, label %if.then.i, label %lor.lhs.false.i

lor.lhs.false.i:                                  ; preds = %_ZNK6vectorIP4sortLb0EjE4sizeEv.exit
  %arrayidx.i2 = getelementptr inbounds i8, ptr %2, i64 -4
  %3 = load i32, ptr %arrayidx.i2, align 4
  %arrayidx4.i = getelementptr inbounds i8, ptr %2, i64 -8
  %4 = load i32, ptr %arrayidx4.i, align 4
  %cmp5.i = icmp eq i32 %3, %4
  br i1 %cmp5.i, label %if.then.i, label %_ZN6vectorIjLb0EjE9push_backEOj.exit

if.then.i:                                        ; preds = %lor.lhs.false.i, %_ZNK6vectorIP4sortLb0EjE4sizeEv.exit
  tail call void @_ZN6vectorIjLb0EjE13expand_vectorEv(ptr noundef nonnull align 8 dereferenceable(8) %m_notified_lim)
  %.pre.i = load ptr, ptr %m_notified_lim, align 8
  %arrayidx8.phi.trans.insert.i = getelementptr inbounds i8, ptr %.pre.i, i64 -4
  %.pre1.i = load i32, ptr %arrayidx8.phi.trans.insert.i, align 4
  br label %_ZN6vectorIjLb0EjE9push_backEOj.exit

_ZN6vectorIjLb0EjE9push_backEOj.exit:             ; preds = %lor.lhs.false.i, %if.then.i
  %5 = phi i32 [ %.pre1.i, %if.then.i ], [ %3, %lor.lhs.false.i ]
  %6 = phi ptr [ %.pre.i, %if.then.i ], [ %2, %lor.lhs.false.i ]
  %idx.ext.i = zext i32 %5 to i64
  %add.ptr.i = getelementptr inbounds i32, ptr %6, i64 %idx.ext.i
  store i32 %retval.0.i, ptr %add.ptr.i, align 4
  %7 = load ptr, ptr %m_notified_lim, align 8
  %arrayidx10.i = getelementptr inbounds i8, ptr %7, i64 -4
  %8 = load i32, ptr %arrayidx10.i, align 4
  %inc.i = add i32 %8, 1
  store i32 %inc.i, ptr %arrayidx10.i, align 4
  %m_datatypes_lim = getelementptr inbounds i8, ptr %this, i64 184
  %m_datatypes_trail = getelementptr inbounds i8, ptr %this, i64 176
  %9 = load ptr, ptr %m_datatypes_trail, align 8
  %cmp.i4 = icmp eq ptr %9, null
  br i1 %cmp.i4, label %_ZNK6vectorI6symbolLb0EjE4sizeEv.exit, label %if.end.i5

if.end.i5:                                        ; preds = %_ZN6vectorIjLb0EjE9push_backEOj.exit
  %arrayidx.i6 = getelementptr inbounds i8, ptr %9, i64 -4
  %10 = load i32, ptr %arrayidx.i6, align 4
  br label %_ZNK6vectorI6symbolLb0EjE4sizeEv.exit

_ZNK6vectorI6symbolLb0EjE4sizeEv.exit:            ; preds = %_ZN6vectorIjLb0EjE9push_backEOj.exit, %if.end.i5
  %retval.0.i7 = phi i32 [ %10, %if.end.i5 ], [ 0, %_ZN6vectorIjLb0EjE9push_backEOj.exit ]
  %11 = load ptr, ptr %m_datatypes_lim, align 8
  %cmp.i8 = icmp eq ptr %11, null
  br i1 %cmp.i8, label %if.then.i18, label %lor.lhs.false.i9

lor.lhs.false.i9:                                 ; preds = %_ZNK6vectorI6symbolLb0EjE4sizeEv.exit
  %arrayidx.i10 = getelementptr inbounds i8, ptr %11, i64 -4
  %12 = load i32, ptr %arrayidx.i10, align 4
  %arrayidx4.i11 = getelementptr inbounds i8, ptr %11, i64 -8
  %13 = load i32, ptr %arrayidx4.i11, align 4
  %cmp5.i12 = icmp eq i32 %12, %13
  br i1 %cmp5.i12, label %if.then.i18, label %_ZN6vectorIjLb0EjE9push_backEOj.exit22

if.then.i18:                                      ; preds = %lor.lhs.false.i9, %_ZNK6vectorI6symbolLb0EjE4sizeEv.exit
  tail call void @_ZN6vectorIjLb0EjE13expand_vectorEv(ptr noundef nonnull align 8 dereferenceable(8) %m_datatypes_lim)
  %.pre.i19 = load ptr, ptr %m_datatypes_lim, align 8
  %arrayidx8.phi.trans.insert.i20 = getelementptr inbounds i8, ptr %.pre.i19, i64 -4
  %.pre1.i21 = load i32, ptr %arrayidx8.phi.trans.insert.i20, align 4
  br label %_ZN6vectorIjLb0EjE9push_backEOj.exit22

_ZN6vectorIjLb0EjE9push_backEOj.exit22:           ; preds = %lor.lhs.false.i9, %if.then.i18
  %14 = phi i32 [ %.pre1.i21, %if.then.i18 ], [ %12, %lor.lhs.false.i9 ]
  %15 = phi ptr [ %.pre.i19, %if.then.i18 ], [ %11, %lor.lhs.false.i9 ]
  %idx.ext.i14 = zext i32 %14 to i64
  %add.ptr.i15 = getelementptr inbounds i32, ptr %15, i64 %idx.ext.i14
  store i32 %retval.0.i7, ptr %add.ptr.i15, align 4
  %16 = load ptr, ptr %m_datatypes_lim, align 8
  %arrayidx10.i16 = getelementptr inbounds i8, ptr %16, i64 -4
  %17 = load i32, ptr %arrayidx10.i16, align 4
  %inc.i17 = add i32 %17, 1
  store i32 %inc.i17, ptr %arrayidx10.i16, align 4
  ret void
}